     1 00000000                                 [FORMAT "WCOFF"]
     2 00000000                                 [INSTRSET "i486p"]
     3 00000000                                 [OPTIMIZE 1]
     4 00000000                                 [OPTION 1]
     5 00000000                                 [BITS 32]
     6 00000000                                 	EXTERN	_init_gdtidt
     7 00000000                                 	EXTERN	_init_pic
     8 00000000                                 	EXTERN	_io_sti
     9 00000000                                 	EXTERN	_fifo32_init
    10 00000000                                 	EXTERN	_init_pit
    11 00000000                                 	EXTERN	_init_keyboard
    12 00000000                                 	EXTERN	_io_out8
    13 00000000                                 	EXTERN	_memtest
    14 00000000                                 	EXTERN	_memman_init
    15 00000000                                 	EXTERN	_memman_free
    16 00000000                                 	EXTERN	_init_palette
    17 00000000                                 	EXTERN	_shtctl_init
    18 00000000                                 	EXTERN	_task_init
    19 00000000                                 	EXTERN	_task_run
    20 00000000                                 	EXTERN	_sheet_alloc
    21 00000000                                 	EXTERN	_memman_alloc_4k
    22 00000000                                 	EXTERN	_sheet_setbuf
    23 00000000                                 	EXTERN	_init_screen8
    24 00000000                                 	EXTERN	_make_window8
    25 00000000                                 	EXTERN	_make_textbox8
    26 00000000                                 	EXTERN	_task_alloc
    27 00000000                                 	EXTERN	_console_task
    28 00000000                                 	EXTERN	_timer_alloc
    29 00000000                                 	EXTERN	_timer_init
    30 00000000                                 	EXTERN	_timer_settime
    31 00000000                                 	EXTERN	_init_mouse_cursor8
    32 00000000                                 	EXTERN	_sheet_slide
    33 00000000                                 	EXTERN	_sheet_updown
    34 00000000                                 	EXTERN	_fifo32_put
    35 00000000                                 	EXTERN	_fifo32_status
    36 00000000                                 	EXTERN	_io_cli
    37 00000000                                 	EXTERN	_fifo32_get
    38 00000000                                 	EXTERN	_keytable0.0
    39 00000000                                 	EXTERN	_boxfill8
    40 00000000                                 	EXTERN	_sheet_refresh
    41 00000000                                 	EXTERN	_wait_KBC_sendready
    42 00000000                                 	EXTERN	_keytable1.1
    43 00000000                                 	EXTERN	_task_sleep
    44 00000000                                 [FILE "bootpack.c"]
    45                                          [SECTION .data]
    46 00000000                                 _keytable0.0:
    47 00000000 00                              	DB	0
    48 00000001 00                              	DB	0
    49 00000002 31                              	DB	49
    50 00000003 32                              	DB	50
    51 00000004 33                              	DB	51
    52 00000005 34                              	DB	52
    53 00000006 35                              	DB	53
    54 00000007 36                              	DB	54
    55 00000008 37                              	DB	55
    56 00000009 38                              	DB	56
    57 0000000A 39                              	DB	57
    58 0000000B 30                              	DB	48
    59 0000000C 2D                              	DB	45
    60 0000000D 5E                              	DB	94
    61 0000000E 00                              	DB	0
    62 0000000F 00                              	DB	0
    63 00000010 51                              	DB	81
    64 00000011 57                              	DB	87
    65 00000012 45                              	DB	69
    66 00000013 52                              	DB	82
    67 00000014 54                              	DB	84
    68 00000015 59                              	DB	89
    69 00000016 55                              	DB	85
    70 00000017 49                              	DB	73
    71 00000018 4F                              	DB	79
    72 00000019 50                              	DB	80
    73 0000001A 40                              	DB	64
    74 0000001B 5B                              	DB	91
    75 0000001C 00                              	DB	0
    76 0000001D 00                              	DB	0
    77 0000001E 41                              	DB	65
    78 0000001F 53                              	DB	83
    79 00000020 44                              	DB	68
    80 00000021 46                              	DB	70
    81 00000022 47                              	DB	71
    82 00000023 48                              	DB	72
    83 00000024 4A                              	DB	74
    84 00000025 4B                              	DB	75
    85 00000026 4C                              	DB	76
    86 00000027 3B                              	DB	59
    87 00000028 3A                              	DB	58
    88 00000029 00                              	DB	0
    89 0000002A 00                              	DB	0
    90 0000002B 5D                              	DB	93
    91 0000002C 5A                              	DB	90
    92 0000002D 58                              	DB	88
    93 0000002E 43                              	DB	67
    94 0000002F 56                              	DB	86
    95 00000030 42                              	DB	66
    96 00000031 4E                              	DB	78
    97 00000032 4D                              	DB	77
    98 00000033 2C                              	DB	44
    99 00000034 2E                              	DB	46
   100 00000035 2F                              	DB	47
   101 00000036 00                              	DB	0
   102 00000037 2A                              	DB	42
   103 00000038 00                              	DB	0
   104 00000039 20                              	DB	32
   105 0000003A 00                              	DB	0
   106 0000003B 00                              	DB	0
   107 0000003C 00                              	DB	0
   108 0000003D 00                              	DB	0
   109 0000003E 00                              	DB	0
   110 0000003F 00                              	DB	0
   111 00000040 00                              	DB	0
   112 00000041 00                              	DB	0
   113 00000042 00                              	DB	0
   114 00000043 00                              	DB	0
   115 00000044 00                              	DB	0
   116 00000045 00                              	DB	0
   117 00000046 00                              	DB	0
   118 00000047 37                              	DB	55
   119 00000048 38                              	DB	56
   120 00000049 39                              	DB	57
   121 0000004A 2D                              	DB	45
   122 0000004B 34                              	DB	52
   123 0000004C 35                              	DB	53
   124 0000004D 36                              	DB	54
   125 0000004E 2B                              	DB	43
   126 0000004F 31                              	DB	49
   127 00000050 32                              	DB	50
   128 00000051 33                              	DB	51
   129 00000052 30                              	DB	48
   130 00000053 2E                              	DB	46
   131 00000054 00                              	DB	0
   132 00000055 00                              	DB	0
   133 00000056 00                              	DB	0
   134 00000057 00                              	DB	0
   135 00000058 00                              	DB	0
   136 00000059 00                              	DB	0
   137 0000005A 00                              	DB	0
   138 0000005B 00                              	DB	0
   139 0000005C 00                              	DB	0
   140 0000005D 00                              	DB	0
   141 0000005E 00                              	DB	0
   142 0000005F 00                              	DB	0
   143 00000060 00                              	DB	0
   144 00000061 00                              	DB	0
   145 00000062 00                              	DB	0
   146 00000063 00                              	DB	0
   147 00000064 00                              	DB	0
   148 00000065 00                              	DB	0
   149 00000066 00                              	DB	0
   150 00000067 00                              	DB	0
   151 00000068 00                              	DB	0
   152 00000069 00                              	DB	0
   153 0000006A 00                              	DB	0
   154 0000006B 00                              	DB	0
   155 0000006C 00                              	DB	0
   156 0000006D 00                              	DB	0
   157 0000006E 00                              	DB	0
   158 0000006F 00                              	DB	0
   159 00000070 00                              	DB	0
   160 00000071 00                              	DB	0
   161 00000072 00                              	DB	0
   162 00000073 5C                              	DB	92
   163 00000074 00                              	DB	0
   164 00000075 00                              	DB	0
   165 00000076 00                              	DB	0
   166 00000077 00                              	DB	0
   167 00000078 00                              	DB	0
   168 00000079 00                              	DB	0
   169 0000007A 00                              	DB	0
   170 0000007B 00                              	DB	0
   171 0000007C 00                              	DB	0
   172 0000007D 5C                              	DB	92
   173 0000007E 00                              	DB	0
   174 0000007F 00                              	DB	0
   175 00000080                                 _keytable1.1:
   176 00000080 00                              	DB	0
   177 00000081 00                              	DB	0
   178 00000082 21                              	DB	33
   179 00000083 22                              	DB	34
   180 00000084 23                              	DB	35
   181 00000085 24                              	DB	36
   182 00000086 25                              	DB	37
   183 00000087 26                              	DB	38
   184 00000088 27                              	DB	39
   185 00000089 28                              	DB	40
   186 0000008A 29                              	DB	41
   187 0000008B 7E                              	DB	126
   188 0000008C 3D                              	DB	61
   189 0000008D 7E                              	DB	126
   190 0000008E 00                              	DB	0
   191 0000008F 00                              	DB	0
   192 00000090 51                              	DB	81
   193 00000091 57                              	DB	87
   194 00000092 45                              	DB	69
   195 00000093 52                              	DB	82
   196 00000094 54                              	DB	84
   197 00000095 59                              	DB	89
   198 00000096 55                              	DB	85
   199 00000097 49                              	DB	73
   200 00000098 4F                              	DB	79
   201 00000099 50                              	DB	80
   202 0000009A 60                              	DB	96
   203 0000009B 7B                              	DB	123
   204 0000009C 00                              	DB	0
   205 0000009D 00                              	DB	0
   206 0000009E 41                              	DB	65
   207 0000009F 53                              	DB	83
   208 000000A0 44                              	DB	68
   209 000000A1 46                              	DB	70
   210 000000A2 47                              	DB	71
   211 000000A3 48                              	DB	72
   212 000000A4 4A                              	DB	74
   213 000000A5 4B                              	DB	75
   214 000000A6 4C                              	DB	76
   215 000000A7 2B                              	DB	43
   216 000000A8 2A                              	DB	42
   217 000000A9 00                              	DB	0
   218 000000AA 00                              	DB	0
   219 000000AB 7D                              	DB	125
   220 000000AC 5A                              	DB	90
   221 000000AD 58                              	DB	88
   222 000000AE 43                              	DB	67
   223 000000AF 56                              	DB	86
   224 000000B0 42                              	DB	66
   225 000000B1 4E                              	DB	78
   226 000000B2 4D                              	DB	77
   227 000000B3 3C                              	DB	60
   228 000000B4 3E                              	DB	62
   229 000000B5 3F                              	DB	63
   230 000000B6 00                              	DB	0
   231 000000B7 2A                              	DB	42
   232 000000B8 00                              	DB	0
   233 000000B9 20                              	DB	32
   234 000000BA 00                              	DB	0
   235 000000BB 00                              	DB	0
   236 000000BC 00                              	DB	0
   237 000000BD 00                              	DB	0
   238 000000BE 00                              	DB	0
   239 000000BF 00                              	DB	0
   240 000000C0 00                              	DB	0
   241 000000C1 00                              	DB	0
   242 000000C2 00                              	DB	0
   243 000000C3 00                              	DB	0
   244 000000C4 00                              	DB	0
   245 000000C5 00                              	DB	0
   246 000000C6 00                              	DB	0
   247 000000C7 37                              	DB	55
   248 000000C8 38                              	DB	56
   249 000000C9 39                              	DB	57
   250 000000CA 2D                              	DB	45
   251 000000CB 34                              	DB	52
   252 000000CC 35                              	DB	53
   253 000000CD 36                              	DB	54
   254 000000CE 2B                              	DB	43
   255 000000CF 31                              	DB	49
   256 000000D0 32                              	DB	50
   257 000000D1 33                              	DB	51
   258 000000D2 30                              	DB	48
   259 000000D3 2E                              	DB	46
   260 000000D4 00                              	DB	0
   261 000000D5 00                              	DB	0
   262 000000D6 00                              	DB	0
   263 000000D7 00                              	DB	0
   264 000000D8 00                              	DB	0
   265 000000D9 00                              	DB	0
   266 000000DA 00                              	DB	0
   267 000000DB 00                              	DB	0
   268 000000DC 00                              	DB	0
   269 000000DD 00                              	DB	0
   270 000000DE 00                              	DB	0
   271 000000DF 00                              	DB	0
   272 000000E0 00                              	DB	0
   273 000000E1 00                              	DB	0
   274 000000E2 00                              	DB	0
   275 000000E3 00                              	DB	0
   276 000000E4 00                              	DB	0
   277 000000E5 00                              	DB	0
   278 000000E6 00                              	DB	0
   279 000000E7 00                              	DB	0
   280 000000E8 00                              	DB	0
   281 000000E9 00                              	DB	0
   282 000000EA 00                              	DB	0
   283 000000EB 00                              	DB	0
   284 000000EC 00                              	DB	0
   285 000000ED 00                              	DB	0
   286 000000EE 00                              	DB	0
   287 000000EF 00                              	DB	0
   288 000000F0 00                              	DB	0
   289 000000F1 00                              	DB	0
   290 000000F2 00                              	DB	0
   291 000000F3 5F                              	DB	95
   292 000000F4 00                              	DB	0
   293 000000F5 00                              	DB	0
   294 000000F6 00                              	DB	0
   295 000000F7 00                              	DB	0
   296 000000F8 00                              	DB	0
   297 000000F9 00                              	DB	0
   298 000000FA 00                              	DB	0
   299 000000FB 00                              	DB	0
   300 000000FC 00                              	DB	0
   301 000000FD 7C                              	DB	124
   302 000000FE 00                              	DB	0
   303 000000FF 00                              	DB	0
   304 00000100                                 LC0:
   305 00000100 63 6F 6E 73 6F 6C 65 00         	DB	"console",0x00
   306 00000108                                 LC1:
   307 00000108 74 61 73 6B 5F 61 00            	DB	"task_a",0x00
   308                                          [SECTION .text]
   309 00000000                                 	GLOBAL	_HariMain
   310 00000000                                 _HariMain:
   311 00000000 55                              	PUSH	EBP
   312 00000001 89 E5                           	MOV	EBP,ESP
   313 00000003 57                              	PUSH	EDI
   314 00000004 56                              	PUSH	ESI
   315 00000005 53                              	PUSH	EBX
   316 00000006 81 EC 00000414                  	SUB	ESP,1044
   317 0000000C C7 85 FFFFFBEC 00000000         	MOV	DWORD [-1044+EBP],0
   318 00000016 A0 00000FF1                     	MOV	AL,BYTE [4081]
   319 0000001B C0 F8 04                        	SAR	AL,4
   320 0000001E 89 C2                           	MOV	EDX,EAX
   321 00000020 83 E2 07                        	AND	EDX,7
   322 00000023 89 95 FFFFFBE8                  	MOV	DWORD [-1048+EBP],EDX
   323 00000029 C7 85 FFFFFBE4 FFFFFFFF         	MOV	DWORD [-1052+EBP],-1
   324 00000033 E8 [00000000]                   	CALL	_init_gdtidt
   325 00000038 E8 [00000000]                   	CALL	_init_pic
   326 0000003D E8 [00000000]                   	CALL	_io_sti
   327 00000042 8D 85 FFFFFD84                  	LEA	EAX,DWORD [-636+EBP]
   328 00000048 6A 00                           	PUSH	0
   329 0000004A 50                              	PUSH	EAX
   330 0000004B 8D 45 A4                        	LEA	EAX,DWORD [-92+EBP]
   331 0000004E 68 00000080                     	PUSH	128
   332 00000053 50                              	PUSH	EAX
   333 00000054 E8 [00000000]                   	CALL	_fifo32_init
   334 00000059 E8 [00000000]                   	CALL	_init_pit
   335 0000005E 8D 55 A4                        	LEA	EDX,DWORD [-92+EBP]
   336 00000061 68 00000100                     	PUSH	256
   337 00000066 52                              	PUSH	EDX
   338 00000067 E8 [00000000]                   	CALL	_init_keyboard
   339 0000006C 68 000000F8                     	PUSH	248
   340 00000071 6A 21                           	PUSH	33
   341 00000073 E8 [00000000]                   	CALL	_io_out8
   342 00000078 83 C4 20                        	ADD	ESP,32
   343 0000007B 68 000000EF                     	PUSH	239
   344 00000080 68 000000A1                     	PUSH	161
   345 00000085 E8 [00000000]                   	CALL	_io_out8
   346 0000008A 8D 85 FFFFFD04                  	LEA	EAX,DWORD [-764+EBP]
   347 00000090 6A 00                           	PUSH	0
   348 00000092 50                              	PUSH	EAX
   349 00000093 8D 45 84                        	LEA	EAX,DWORD [-124+EBP]
   350 00000096 6A 20                           	PUSH	32
   351 00000098 50                              	PUSH	EAX
   352 00000099 E8 [00000000]                   	CALL	_fifo32_init
   353 0000009E 68 BFFFFFFF                     	PUSH	-1073741825
   354 000000A3 68 00400000                     	PUSH	4194304
   355 000000A8 E8 [00000000]                   	CALL	_memtest
   356 000000AD 83 C4 20                        	ADD	ESP,32
   357 000000B0 68 003C0000                     	PUSH	3932160
   358 000000B5 89 85 FFFFFC00                  	MOV	DWORD [-1024+EBP],EAX
   359 000000BB E8 [00000000]                   	CALL	_memman_init
   360 000000C0 68 0009E000                     	PUSH	647168
   361 000000C5 68 00001000                     	PUSH	4096
   362 000000CA 68 003C0000                     	PUSH	3932160
   363 000000CF E8 [00000000]                   	CALL	_memman_free
   364 000000D4 8B 85 FFFFFC00                  	MOV	EAX,DWORD [-1024+EBP]
   365 000000DA 2D 00400000                     	SUB	EAX,4194304
   366 000000DF 50                              	PUSH	EAX
   367 000000E0 68 00400000                     	PUSH	4194304
   368 000000E5 68 003C0000                     	PUSH	3932160
   369 000000EA E8 [00000000]                   	CALL	_memman_free
   370 000000EF E8 [00000000]                   	CALL	_init_palette
   371 000000F4 0F BF 05 00000FF6               	MOVSX	EAX,WORD [4086]
   372 000000FB 50                              	PUSH	EAX
   373 000000FC 0F BF 05 00000FF4               	MOVSX	EAX,WORD [4084]
   374 00000103 50                              	PUSH	EAX
   375 00000104 FF 35 00000FF8                  	PUSH	DWORD [4088]
   376 0000010A 68 003C0000                     	PUSH	3932160
   377 0000010F E8 [00000000]                   	CALL	_shtctl_init
   378 00000114 83 C4 2C                        	ADD	ESP,44
   379 00000117 89 C6                           	MOV	ESI,EAX
   380 00000119 68 003C0000                     	PUSH	3932160
   381 0000011E E8 [00000000]                   	CALL	_task_init
   382 00000123 6A 02                           	PUSH	2
   383 00000125 6A 01                           	PUSH	1
   384 00000127 50                              	PUSH	EAX
   385 00000128 89 85 FFFFFBF0                  	MOV	DWORD [-1040+EBP],EAX
   386 0000012E 89 45 BC                        	MOV	DWORD [-68+EBP],EAX
   387 00000131 E8 [00000000]                   	CALL	_task_run
   388 00000136 56                              	PUSH	ESI
   389 00000137 E8 [00000000]                   	CALL	_sheet_alloc
   390 0000013C 0F BF 15 00000FF6               	MOVSX	EDX,WORD [4086]
   391 00000143 89 85 FFFFFBFC                  	MOV	DWORD [-1028+EBP],EAX
   392 00000149 0F BF 05 00000FF4               	MOVSX	EAX,WORD [4084]
   393 00000150 0F AF C2                        	IMUL	EAX,EDX
   394 00000153 50                              	PUSH	EAX
   395 00000154 68 003C0000                     	PUSH	3932160
   396 00000159 E8 [00000000]                   	CALL	_memman_alloc_4k
   397 0000015E 6A FF                           	PUSH	-1
   398 00000160 89 C3                           	MOV	EBX,EAX
   399 00000162 0F BF 05 00000FF6               	MOVSX	EAX,WORD [4086]
   400 00000169 50                              	PUSH	EAX
   401 0000016A 0F BF 05 00000FF4               	MOVSX	EAX,WORD [4084]
   402 00000171 50                              	PUSH	EAX
   403 00000172 53                              	PUSH	EBX
   404 00000173 FF B5 FFFFFBFC                  	PUSH	DWORD [-1028+EBP]
   405 00000179 E8 [00000000]                   	CALL	_sheet_setbuf
   406 0000017E 83 C4 30                        	ADD	ESP,48
   407 00000181 0F BF 05 00000FF6               	MOVSX	EAX,WORD [4086]
   408 00000188 50                              	PUSH	EAX
   409 00000189 0F BF 05 00000FF4               	MOVSX	EAX,WORD [4084]
   410 00000190 50                              	PUSH	EAX
   411 00000191 53                              	PUSH	EBX
   412 00000192 E8 [00000000]                   	CALL	_init_screen8
   413 00000197 56                              	PUSH	ESI
   414 00000198 E8 [00000000]                   	CALL	_sheet_alloc
   415 0000019D 68 00075300                     	PUSH	480000
   416 000001A2 68 003C0000                     	PUSH	3932160
   417 000001A7 89 85 FFFFFBF4                  	MOV	DWORD [-1036+EBP],EAX
   418 000001AD E8 [00000000]                   	CALL	_memman_alloc_4k
   419 000001B2 6A FF                           	PUSH	-1
   420 000001B4 89 C3                           	MOV	EBX,EAX
   421 000001B6 68 00000258                     	PUSH	600
   422 000001BB 68 00000320                     	PUSH	800
   423 000001C0 50                              	PUSH	EAX
   424 000001C1 FF B5 FFFFFBF4                  	PUSH	DWORD [-1036+EBP]
   425 000001C7 E8 [00000000]                   	CALL	_sheet_setbuf
   426 000001CC 83 C4 2C                        	ADD	ESP,44
   427 000001CF 6A 00                           	PUSH	0
   428 000001D1 68 [00000100]                   	PUSH	LC0
   429 000001D6 68 00000258                     	PUSH	600
   430 000001DB 68 00000320                     	PUSH	800
   431 000001E0 53                              	PUSH	EBX
   432 000001E1 E8 [00000000]                   	CALL	_make_window8
   433 000001E6 6A 00                           	PUSH	0
   434 000001E8 68 00000233                     	PUSH	563
   435 000001ED 68 00000310                     	PUSH	784
   436 000001F2 6A 1C                           	PUSH	28
   437 000001F4 6A 08                           	PUSH	8
   438 000001F6 FF B5 FFFFFBF4                  	PUSH	DWORD [-1036+EBP]
   439 000001FC E8 [00000000]                   	CALL	_make_textbox8
   440 00000201 83 C4 2C                        	ADD	ESP,44
   441 00000204 E8 [00000000]                   	CALL	_task_alloc
   442 00000209 68 00010000                     	PUSH	65536
   443 0000020E 89 C7                           	MOV	EDI,EAX
   444 00000210 68 003C0000                     	PUSH	3932160
   445 00000215 E8 [00000000]                   	CALL	_memman_alloc_4k
   446 0000021A 8B 95 FFFFFBF4                  	MOV	EDX,DWORD [-1036+EBP]
   447 00000220 05 0000FFF4                     	ADD	EAX,65524
   448 00000225 89 47 64                        	MOV	DWORD [100+EDI],EAX
   449 00000228 C7 47 4C [00000000]             	MOV	DWORD [76+EDI],_console_task
   450 0000022F C7 47 74 00000008               	MOV	DWORD [116+EDI],8
   451 00000236 C7 47 78 00000010               	MOV	DWORD [120+EDI],16
   452 0000023D C7 47 7C 00000008               	MOV	DWORD [124+EDI],8
   453 00000244 C7 87 00000080 00000008         	MOV	DWORD [128+EDI],8
   454 0000024E C7 87 00000084 00000008         	MOV	DWORD [132+EDI],8
   455 00000258 C7 87 00000088 00000008         	MOV	DWORD [136+EDI],8
   456 00000262 89 50 04                        	MOV	DWORD [4+EAX],EDX
   457 00000265 8B 95 FFFFFC00                  	MOV	EDX,DWORD [-1024+EBP]
   458 0000026B 8B 47 64                        	MOV	EAX,DWORD [100+EDI]
   459 0000026E 89 50 08                        	MOV	DWORD [8+EAX],EDX
   460 00000271 6A 02                           	PUSH	2
   461 00000273 6A 02                           	PUSH	2
   462 00000275 57                              	PUSH	EDI
   463 00000276 E8 [00000000]                   	CALL	_task_run
   464 0000027B 56                              	PUSH	ESI
   465 0000027C E8 [00000000]                   	CALL	_sheet_alloc
   466 00000281 68 00002080                     	PUSH	8320
   467 00000286 68 003C0000                     	PUSH	3932160
   468 0000028B 89 85 FFFFFBF8                  	MOV	DWORD [-1032+EBP],EAX
   469 00000291 E8 [00000000]                   	CALL	_memman_alloc_4k
   470 00000296 83 C4 20                        	ADD	ESP,32
   471 00000299 89 C3                           	MOV	EBX,EAX
   472 0000029B 6A FF                           	PUSH	-1
   473 0000029D 6A 34                           	PUSH	52
   474 0000029F 68 00000090                     	PUSH	144
   475 000002A4 50                              	PUSH	EAX
   476 000002A5 FF B5 FFFFFBF8                  	PUSH	DWORD [-1032+EBP]
   477 000002AB E8 [00000000]                   	CALL	_sheet_setbuf
   478 000002B0 6A 01                           	PUSH	1
   479 000002B2 68 [00000108]                   	PUSH	LC1
   480 000002B7 6A 34                           	PUSH	52
   481 000002B9 68 00000090                     	PUSH	144
   482 000002BE 53                              	PUSH	EBX
   483 000002BF E8 [00000000]                   	CALL	_make_window8
   484 000002C4 83 C4 28                        	ADD	ESP,40
   485 000002C7 6A 07                           	PUSH	7
   486 000002C9 6A 10                           	PUSH	16
   487 000002CB 68 00000080                     	PUSH	128
   488 000002D0 6A 1C                           	PUSH	28
   489 000002D2 6A 08                           	PUSH	8
   490 000002D4 FF B5 FFFFFBF8                  	PUSH	DWORD [-1032+EBP]
   491 000002DA E8 [00000000]                   	CALL	_make_textbox8
   492 000002DF E8 [00000000]                   	CALL	_timer_alloc
   493 000002E4 6A 01                           	PUSH	1
   494 000002E6 89 C3                           	MOV	EBX,EAX
   495 000002E8 8D 45 A4                        	LEA	EAX,DWORD [-92+EBP]
   496 000002EB 50                              	PUSH	EAX
   497 000002EC 53                              	PUSH	EBX
   498 000002ED E8 [00000000]                   	CALL	_timer_init
   499 000002F2 83 C4 24                        	ADD	ESP,36
   500 000002F5 6A 32                           	PUSH	50
   501 000002F7 53                              	PUSH	EBX
   502 000002F8 8D 9D FFFFFC04                  	LEA	EBX,DWORD [-1020+EBP]
   503 000002FE E8 [00000000]                   	CALL	_timer_settime
   504 00000303 56                              	PUSH	ESI
   505 00000304 E8 [00000000]                   	CALL	_sheet_alloc
   506 00000309 6A 63                           	PUSH	99
   507 0000030B 6A 10                           	PUSH	16
   508 0000030D 89 C6                           	MOV	ESI,EAX
   509 0000030F 6A 10                           	PUSH	16
   510 00000311 53                              	PUSH	EBX
   511 00000312 50                              	PUSH	EAX
   512 00000313 E8 [00000000]                   	CALL	_sheet_setbuf
   513 00000318 83 C4 20                        	ADD	ESP,32
   514 0000031B 6A 63                           	PUSH	99
   515 0000031D 53                              	PUSH	EBX
   516 0000031E E8 [00000000]                   	CALL	_init_mouse_cursor8
   517 00000323 B9 00000002                     	MOV	ECX,2
   518 00000328 0F BF 05 00000FF4               	MOVSX	EAX,WORD [4084]
   519 0000032F 8D 50 F0                        	LEA	EDX,DWORD [-16+EAX]
   520 00000332 89 D0                           	MOV	EAX,EDX
   521 00000334 99                              	CDQ
   522 00000335 F7 F9                           	IDIV	ECX
   523 00000337 0F BF 15 00000FF6               	MOVSX	EDX,WORD [4086]
   524 0000033E 83 EA 2C                        	SUB	EDX,44
   525 00000341 89 85 FFFFFBE0                  	MOV	DWORD [-1056+EBP],EAX
   526 00000347 89 D0                           	MOV	EAX,EDX
   527 00000349 6A 00                           	PUSH	0
   528 0000034B 99                              	CDQ
   529 0000034C F7 F9                           	IDIV	ECX
   530 0000034E 6A 00                           	PUSH	0
   531 00000350 89 C3                           	MOV	EBX,EAX
   532 00000352 FF B5 FFFFFBFC                  	PUSH	DWORD [-1028+EBP]
   533 00000358 E8 [00000000]                   	CALL	_sheet_slide
   534 0000035D 6A 00                           	PUSH	0
   535 0000035F 6A 00                           	PUSH	0
   536 00000361 FF B5 FFFFFBF4                  	PUSH	DWORD [-1036+EBP]
   537 00000367 E8 [00000000]                   	CALL	_sheet_slide
   538 0000036C 83 C4 20                        	ADD	ESP,32
   539 0000036F 6A 38                           	PUSH	56
   540 00000371 6A 40                           	PUSH	64
   541 00000373 FF B5 FFFFFBF8                  	PUSH	DWORD [-1032+EBP]
   542 00000379 E8 [00000000]                   	CALL	_sheet_slide
   543 0000037E 53                              	PUSH	EBX
   544 0000037F FF B5 FFFFFBE0                  	PUSH	DWORD [-1056+EBP]
   545 00000385 56                              	PUSH	ESI
   546 00000386 E8 [00000000]                   	CALL	_sheet_slide
   547 0000038B 6A 00                           	PUSH	0
   548 0000038D FF B5 FFFFFBFC                  	PUSH	DWORD [-1028+EBP]
   549 00000393 E8 [00000000]                   	CALL	_sheet_updown
   550 00000398 83 C4 20                        	ADD	ESP,32
   551 0000039B 6A 02                           	PUSH	2
   552 0000039D FF B5 FFFFFBF8                  	PUSH	DWORD [-1032+EBP]
   553 000003A3 E8 [00000000]                   	CALL	_sheet_updown
   554 000003A8 6A 03                           	PUSH	3
   555 000003AA 56                              	PUSH	ESI
   556 000003AB E8 [00000000]                   	CALL	_sheet_updown
   557 000003B0 6A 05                           	PUSH	5
   558 000003B2 FF B5 FFFFFBF4                  	PUSH	DWORD [-1036+EBP]
   559 000003B8 E8 [00000000]                   	CALL	_sheet_updown
   560 000003BD 8D 55 84                        	LEA	EDX,DWORD [-124+EBP]
   561 000003C0 68 000000ED                     	PUSH	237
   562 000003C5 52                              	PUSH	EDX
   563 000003C6 E8 [00000000]                   	CALL	_fifo32_put
   564 000003CB 8D 45 84                        	LEA	EAX,DWORD [-124+EBP]
   565 000003CE 83 C4 20                        	ADD	ESP,32
   566 000003D1 FF B5 FFFFFBE8                  	PUSH	DWORD [-1048+EBP]
   567 000003D7 50                              	PUSH	EAX
   568 000003D8 E8 [00000000]                   	CALL	_fifo32_put
   569 000003DD 59                              	POP	ECX
   570 000003DE 5B                              	POP	EBX
   571 000003DF                                 L2:
   572 000003DF 8D 5D 84                        	LEA	EBX,DWORD [-124+EBP]
   573 000003E2 53                              	PUSH	EBX
   574 000003E3 E8 [00000000]                   	CALL	_fifo32_status
   575 000003E8 5A                              	POP	EDX
   576 000003E9 85 C0                           	TEST	EAX,EAX
   577 000003EB 7E 0D                           	JLE	L5
   578 000003ED 83 BD FFFFFBE4 00               	CMP	DWORD [-1052+EBP],0
   579 000003F4 0F 88 00000281                  	JS	L34
   580 000003FA                                 L5:
   581 000003FA 8D 5D A4                        	LEA	EBX,DWORD [-92+EBP]
   582 000003FD E8 [00000000]                   	CALL	_io_cli
   583 00000402 53                              	PUSH	EBX
   584 00000403 E8 [00000000]                   	CALL	_fifo32_status
   585 00000408 5E                              	POP	ESI
   586 00000409 85 C0                           	TEST	EAX,EAX
   587 0000040B 0F 84 00000254                  	JE	L35
   588 00000411 53                              	PUSH	EBX
   589 00000412 E8 [00000000]                   	CALL	_fifo32_get
   590 00000417 89 C6                           	MOV	ESI,EAX
   591 00000419 E8 [00000000]                   	CALL	_io_sti
   592 0000041E 5A                              	POP	EDX
   593 0000041F 8D 86 FFFFFF00                  	LEA	EAX,DWORD [-256+ESI]
   594 00000425 3D 000000FF                     	CMP	EAX,255
   595 0000042A 77 B3                           	JA	L2
   596 0000042C 81 FE 0000017F                  	CMP	ESI,383
   597 00000432 0F 8F 00000224                  	JG	L9
   598 00000438 83 BD FFFFFBEC 00               	CMP	DWORD [-1044+EBP],0
   599 0000043F 0F 85 0000020C                  	JNE	L10
   600 00000445 8A 86 [FFFFFF00]                	MOV	AL,BYTE [_keytable0.0-256+ESI]
   601 0000044B                                 L33:
   602 0000044B 88 45 C4                        	MOV	BYTE [-60+EBP],AL
   603 0000044E                                 L12:
   604 0000044E 8A 55 C4                        	MOV	DL,BYTE [-60+EBP]
   605 00000451 8D 42 BF                        	LEA	EAX,DWORD [-65+EDX]
   606 00000454 3C 19                           	CMP	AL,25
   607 00000456 77 1D                           	JA	L13
   608 00000458 F7 85 FFFFFBE8 00000004         	TEST	DWORD [-1048+EBP],4
   609 00000462 0F 85 000001DA                  	JNE	L31
   610 00000468 83 BD FFFFFBEC 00               	CMP	DWORD [-1044+EBP],0
   611 0000046F 0F 84 000001C2                  	JE	L15
   612 00000475                                 L13:
   613 00000475 8A 45 C4                        	MOV	AL,BYTE [-60+EBP]
   614 00000478 84 C0                           	TEST	AL,AL
   615 0000047A 74 14                           	JE	L17
   616 0000047C 0F BE C0                        	MOVSX	EAX,AL
   617 0000047F 05 00000100                     	ADD	EAX,256
   618 00000484 50                              	PUSH	EAX
   619 00000485 8D 47 10                        	LEA	EAX,DWORD [16+EDI]
   620 00000488 50                              	PUSH	EAX
   621 00000489 E8 [00000000]                   	CALL	_fifo32_put
   622 0000048E 59                              	POP	ECX
   623 0000048F 5B                              	POP	EBX
   624 00000490                                 L17:
   625 00000490 81 FE 0000010E                  	CMP	ESI,270
   626 00000496 0F 84 00000186                  	JE	L36
   627 0000049C                                 L18:
   628 0000049C 81 FE 0000011C                  	CMP	ESI,284
   629 000004A2 0F 84 00000165                  	JE	L37
   630 000004A8                                 L19:
   631 000004A8 81 FE 0000012A                  	CMP	ESI,298
   632 000004AE 0F 84 0000014D                  	JE	L38
   633 000004B4                                 L21:
   634 000004B4 81 FE 00000136                  	CMP	ESI,310
   635 000004BA 0F 84 00000135                  	JE	L39
   636 000004C0                                 L22:
   637 000004C0 81 FE 000001AA                  	CMP	ESI,426
   638 000004C6 0F 84 0000011D                  	JE	L40
   639 000004CC                                 L23:
   640 000004CC 81 FE 000001B6                  	CMP	ESI,438
   641 000004D2 0F 84 00000105                  	JE	L41
   642 000004D8                                 L24:
   643 000004D8 81 FE 0000013A                  	CMP	ESI,314
   644 000004DE 0F 84 000000D0                  	JE	L42
   645 000004E4                                 L25:
   646 000004E4 81 FE 00000145                  	CMP	ESI,325
   647 000004EA 0F 84 0000009B                  	JE	L43
   648 000004F0                                 L26:
   649 000004F0 81 FE 00000146                  	CMP	ESI,326
   650 000004F6 74 6A                           	JE	L44
   651 000004F8                                 L27:
   652 000004F8 81 FE 000001FA                  	CMP	ESI,506
   653 000004FE 74 56                           	JE	L45
   654 00000500                                 L28:
   655 00000500 81 FE 000001FE                  	CMP	ESI,510
   656 00000506 74 38                           	JE	L46
   657 00000508                                 L32:
   658 00000508 6A 2B                           	PUSH	43
   659 0000050A 8B 95 FFFFFBF8                  	MOV	EDX,DWORD [-1032+EBP]
   660 00000510 6A 0F                           	PUSH	15
   661 00000512 6A 1C                           	PUSH	28
   662 00000514 6A 08                           	PUSH	8
   663 00000516 6A 07                           	PUSH	7
   664 00000518 FF 72 04                        	PUSH	DWORD [4+EDX]
   665 0000051B FF 32                           	PUSH	DWORD [EDX]
   666 0000051D E8 [00000000]                   	CALL	_boxfill8
   667 00000522 83 C4 1C                        	ADD	ESP,28
   668 00000525 6A 2C                           	PUSH	44
   669 00000527 6A 10                           	PUSH	16
   670 00000529 6A 1C                           	PUSH	28
   671 0000052B 6A 08                           	PUSH	8
   672 0000052D FF B5 FFFFFBF8                  	PUSH	DWORD [-1032+EBP]
   673 00000533 E8 [00000000]                   	CALL	_sheet_refresh
   674 00000538 83 C4 14                        	ADD	ESP,20
   675 0000053B E9 FFFFFE9F                     	JMP	L2
   676 00000540                                 L46:
   677 00000540 E8 [00000000]                   	CALL	_wait_KBC_sendready
   678 00000545 FF B5 FFFFFBE4                  	PUSH	DWORD [-1052+EBP]
   679 0000054B 6A 60                           	PUSH	96
   680 0000054D E8 [00000000]                   	CALL	_io_out8
   681 00000552 58                              	POP	EAX
   682 00000553 5A                              	POP	EDX
   683 00000554 EB B2                           	JMP	L32
   684 00000556                                 L45:
   685 00000556 C7 85 FFFFFBE4 FFFFFFFF         	MOV	DWORD [-1052+EBP],-1
   686 00000560 EB 9E                           	JMP	L28
   687 00000562                                 L44:
   688 00000562 68 000000ED                     	PUSH	237
   689 00000567 8D 5D 84                        	LEA	EBX,DWORD [-124+EBP]
   690 0000056A 53                              	PUSH	EBX
   691 0000056B 83 B5 FFFFFBE8 01               	XOR	DWORD [-1048+EBP],1
   692 00000572 E8 [00000000]                   	CALL	_fifo32_put
   693 00000577 FF B5 FFFFFBE8                  	PUSH	DWORD [-1048+EBP]
   694 0000057D 53                              	PUSH	EBX
   695 0000057E E8 [00000000]                   	CALL	_fifo32_put
   696 00000583 83 C4 10                        	ADD	ESP,16
   697 00000586 E9 FFFFFF6D                     	JMP	L27
   698 0000058B                                 L43:
   699 0000058B 68 000000ED                     	PUSH	237
   700 00000590 8D 5D 84                        	LEA	EBX,DWORD [-124+EBP]
   701 00000593 53                              	PUSH	EBX
   702 00000594 83 B5 FFFFFBE8 02               	XOR	DWORD [-1048+EBP],2
   703 0000059B E8 [00000000]                   	CALL	_fifo32_put
   704 000005A0 FF B5 FFFFFBE8                  	PUSH	DWORD [-1048+EBP]
   705 000005A6 53                              	PUSH	EBX
   706 000005A7 E8 [00000000]                   	CALL	_fifo32_put
   707 000005AC 83 C4 10                        	ADD	ESP,16
   708 000005AF E9 FFFFFF3C                     	JMP	L26
   709 000005B4                                 L42:
   710 000005B4 68 000000ED                     	PUSH	237
   711 000005B9 8D 5D 84                        	LEA	EBX,DWORD [-124+EBP]
   712 000005BC 53                              	PUSH	EBX
   713 000005BD 83 B5 FFFFFBE8 04               	XOR	DWORD [-1048+EBP],4
   714 000005C4 E8 [00000000]                   	CALL	_fifo32_put
   715 000005C9 FF B5 FFFFFBE8                  	PUSH	DWORD [-1048+EBP]
   716 000005CF 53                              	PUSH	EBX
   717 000005D0 E8 [00000000]                   	CALL	_fifo32_put
   718 000005D5 83 C4 10                        	ADD	ESP,16
   719 000005D8 E9 FFFFFF07                     	JMP	L25
   720 000005DD                                 L41:
   721 000005DD 83 A5 FFFFFBEC FD               	AND	DWORD [-1044+EBP],-3
   722 000005E4 E9 FFFFFEEF                     	JMP	L24
   723 000005E9                                 L40:
   724 000005E9 83 A5 FFFFFBEC FE               	AND	DWORD [-1044+EBP],-2
   725 000005F0 E9 FFFFFED7                     	JMP	L23
   726 000005F5                                 L39:
   727 000005F5 83 8D FFFFFBEC 02               	OR	DWORD [-1044+EBP],2
   728 000005FC E9 FFFFFEBF                     	JMP	L22
   729 00000601                                 L38:
   730 00000601 83 8D FFFFFBEC 01               	OR	DWORD [-1044+EBP],1
   731 00000608 E9 FFFFFEA7                     	JMP	L21
   732 0000060D                                 L37:
   733 0000060D 68 0000010A                     	PUSH	266
   734 00000612 8D 47 10                        	LEA	EAX,DWORD [16+EDI]
   735 00000615 50                              	PUSH	EAX
   736 00000616 E8 [00000000]                   	CALL	_fifo32_put
   737 0000061B 59                              	POP	ECX
   738 0000061C 5B                              	POP	EBX
   739 0000061D E9 FFFFFE86                     	JMP	L19
   740 00000622                                 L36:
   741 00000622 68 00000108                     	PUSH	264
   742 00000627 8D 47 10                        	LEA	EAX,DWORD [16+EDI]
   743 0000062A 50                              	PUSH	EAX
   744 0000062B E8 [00000000]                   	CALL	_fifo32_put
   745 00000630 58                              	POP	EAX
   746 00000631 5A                              	POP	EDX
   747 00000632 E9 FFFFFE65                     	JMP	L18
   748 00000637                                 L15:
   749 00000637 8D 42 20                        	LEA	EAX,DWORD [32+EDX]
   750 0000063A 88 45 C4                        	MOV	BYTE [-60+EBP],AL
   751 0000063D E9 FFFFFE33                     	JMP	L13
   752 00000642                                 L31:
   753 00000642 83 BD FFFFFBEC 00               	CMP	DWORD [-1044+EBP],0
   754 00000649 0F 84 FFFFFE26                  	JE	L13
   755 0000064F EB E6                           	JMP	L15
   756 00000651                                 L10:
   757 00000651 8A 86 [FFFFFF80]                	MOV	AL,BYTE [_keytable1.1-256+ESI]
   758 00000657 E9 FFFFFDEF                     	JMP	L33
   759 0000065C                                 L9:
   760 0000065C C6 45 C4 00                     	MOV	BYTE [-60+EBP],0
   761 00000660 E9 FFFFFDE9                     	JMP	L12
   762 00000665                                 L35:
   763 00000665 FF B5 FFFFFBF0                  	PUSH	DWORD [-1040+EBP]
   764 0000066B E8 [00000000]                   	CALL	_task_sleep
   765 00000670 E8 [00000000]                   	CALL	_io_sti
   766 00000675 59                              	POP	ECX
   767 00000676 E9 FFFFFD64                     	JMP	L2
   768 0000067B                                 L34:
   769 0000067B 53                              	PUSH	EBX
   770 0000067C E8 [00000000]                   	CALL	_fifo32_get
   771 00000681 89 85 FFFFFBE4                  	MOV	DWORD [-1052+EBP],EAX
   772 00000687 E8 [00000000]                   	CALL	_wait_KBC_sendready
   773 0000068C FF B5 FFFFFBE4                  	PUSH	DWORD [-1052+EBP]
   774 00000692 6A 60                           	PUSH	96
   775 00000694 E8 [00000000]                   	CALL	_io_out8
   776 00000699 83 C4 0C                        	ADD	ESP,12
   777 0000069C E9 FFFFFD59                     	JMP	L5
